; Function Attrs: mustprogress uwtable
define dso_local void @_ZN3dap5ErrorC2EPKcz(ptr noundef nonnull align 8 dereferenceable(32) %0, ptr nocapture noundef readonly %1, ...) unnamed_addr #0 align 2 personality ptr @__gxx_personality_v0 {
  %3 = alloca [2048 x i8], align 16
  %4 = alloca [1 x %struct.__va_list_tag], align 16
  tail call void @_ZNSt7__cxx1112basic_stringIcSt11char_traitsIcESaIcEEC1Ev(ptr noundef nonnull align 8 dereferenceable(32) %0) #22
  call void @llvm.va_start(ptr nonnull %4)
  %5 = call i32 @vsnprintf(ptr noundef nonnull %3, i64 noundef 2048, ptr noundef %1, ptr noundef nonnull %4) #22
  call void @llvm.va_end(ptr nonnull %4)
  %6 = invoke noundef nonnull align 8 dereferenceable(32) ptr @_ZNSt7__cxx1112basic_stringIcSt11char_traitsIcESaIcEEaSEPKc(ptr noundef nonnull align 8 dereferenceable(32) %0, ptr noundef nonnull %3)
          to label %7 unwind label %8

7:                                                ; preds = %2
  ret void

8:                                                ; preds = %2
  %9 = landingpad { ptr, i32 }
          cleanup
  call void @_ZNSt7__cxx1112basic_stringIcSt11char_traitsIcESaIcEED1Ev(ptr noundef nonnull align 8 dereferenceable(32) %0) #22
  resume { ptr, i32 } %9
}